target datalayout = "e-m:e-p270:32:32-p271:32:32-p272:64:64-i64:64-i128:128-f80:128-n8:16:32:64-S128"
target triple = "x86_64-pc-linux-gnu"

%struct.Test3B = type { [2 x double] }

; Function Attrs: nounwind uwtable
define double @_testfunc_array_in_struct3B(double %0, double %1) #0 {
  %3 = alloca %struct.Test3B, align 8
  %4 = alloca double, align 8
  %5 = alloca i32, align 4
  %6 = getelementptr inbounds nuw { double, double }, ptr %3, i32 0, i32 0
  store double %0, ptr %6, align 8
  %7 = getelementptr inbounds nuw { double, double }, ptr %3, i32 0, i32 1
  store double %1, ptr %7, align 8
  call void @llvm.lifetime.start.p0(i64 8, ptr %4) #12
  store double 0.000000e+00, ptr %4, align 8, !tbaa !9
  call void @llvm.lifetime.start.p0(i64 4, ptr %5) #12
  store i32 0, ptr %5, align 4, !tbaa !3
  br label %8

8:                                                ; preds = %21, %2
  %9 = load i32, ptr %5, align 4, !tbaa !3
  %10 = zext i32 %9 to i64
  %11 = icmp ult i64 %10, 2
  br i1 %11, label %13, label %12

12:                                               ; preds = %8
  call void @llvm.lifetime.end.p0(i64 4, ptr %5) #12
  br label %24

13:                                               ; preds = %8
  %14 = getelementptr inbounds nuw %struct.Test3B, ptr %3, i32 0, i32 0
  %15 = load i32, ptr %5, align 4, !tbaa !3
  %16 = zext i32 %15 to i64
  %17 = getelementptr [2 x double], ptr %14, i64 0, i64 %16
  %18 = load double, ptr %17, align 8, !tbaa !9
  %19 = load double, ptr %4, align 8, !tbaa !9
  %20 = fadd double %19, %18
  store double %20, ptr %4, align 8, !tbaa !9
  br label %21

21:                                               ; preds = %13
  %22 = load i32, ptr %5, align 4, !tbaa !3
  %23 = add i32 %22, 1
  store i32 %23, ptr %5, align 4, !tbaa !3
  br label %8, !llvm.loop !27

24:                                               ; preds = %12
  %25 = getelementptr inbounds nuw %struct.Test3B, ptr %3, i32 0, i32 0
  %26 = getelementptr inbounds [2 x double], ptr %25, i64 0, i64 0
  call void @llvm.memset.p0.i64(ptr align 8 %26, i8 0, i64 16, i1 false)
  %27 = load double, ptr %4, align 8, !tbaa !9
  call void @llvm.lifetime.end.p0(i64 8, ptr %4) #12
  ret double %27
}