; Function Attrs: nofree norecurse nosync nounwind memory(none) uwtable
define double @_testfunc_array_in_struct3B(double %0, double %1) local_unnamed_addr #4 {
  br label %4

3:                                                ; preds = %4
  ret double %6

4:                                                ; preds = %2, %4
  %5 = phi i1 [ true, %2 ], [ false, %4 ]
  %indvars.iv.sroa.phi.sroa.speculated = phi double [ %0, %2 ], [ %1, %4 ]
  %.046 = phi double [ 0.000000e+00, %2 ], [ %6, %4 ]
  %6 = fadd double %.046, %indvars.iv.sroa.phi.sroa.speculated
  br i1 %5, label %4, label %3, !llvm.loop !22
}